target datalayout = "e-m:e-p270:32:32-p271:32:32-p272:64:64-i64:64-i128:128-f80:128-n8:16:32:64-S128"
target triple = "x86_64-pc-linux-gnu"

%struct._packet_info = type { ptr, ptr, i32, i32, %struct.nstime_t, %struct.nstime_t, %struct.nstime_t, i8, ptr, ptr, ptr, ptr, %struct._address, %struct._address, %struct._address, %struct._address, %struct._address, %struct._address, i32, ptr, i8, [3 x i8], %struct.anon, i32, i32, i32, i32, ptr, i8, ptr, ptr, i16, i16, i32, i32, i16, i32, i32, ptr, ptr, ptr, i8, i8, i16, i16, i16, i32, i16, i16, ptr, ptr, ptr, ptr, ptr, i32, i32 }
%struct.nstime_t = type { i64, i32 }
%struct._address = type { i32, i32, ptr, ptr }
%struct.anon = type { i8, [3 x i8] }
%struct.infinibandinfo = type { ptr, i8, i8, i16, i32, i64, i32, i32, i8, i8 }
%struct.conversation_infiniband_data = type { i64, i8, i8, i32, [232 x i8] }

@hf_nvmeof_rdma_cm_req_recfmt = internal global i32 0, align 4
@hf_nvmeof_rdma_cm_req_qid = internal global i32 0, align 4
@hf_nvmeof_rdma_cm_req_hrqsize = internal global i32 0, align 4
@hf_nvmeof_rdma_cm_req_hsqsize = internal global i32 0, align 4
@hf_nvmeof_rdma_cm_req_cntlid = internal global i32 0, align 4
@hf_nvmeof_rdma_cm_req_reserved = internal global i32 0, align 4
@hf_nvmeof_rdma_cm_rsp_recfmt = internal global i32 0, align 4
@hf_nvmeof_rdma_cm_rsp_crqsize = internal global i32 0, align 4
@hf_nvmeof_rdma_cm_rsp_reserved = internal global i32 0, align 4
@hf_nvmeof_rdma_cm_rej_recfmt = internal global i32 0, align 4
@hf_nvmeof_rdma_cm_rej_status = internal global i32 0, align 4
@ett_cm = internal global i32 0, align 4
@.str.49 = private unnamed_addr constant [18 x i8] c"NVMe Fabrics RDMA\00", align 1
@proto_nvme_rdma = internal global i32 0, align 4
@gPORT_RANGE = internal global ptr null, align 8
@proto_ib = internal global i32 0, align 4

; Function Attrs: null_pointer_is_valid sspstrong uwtable
define internal void @dissect_rdma_cm_rej_packet(ptr noundef %0, ptr noundef %1) #0 {
  %3 = alloca ptr, align 8
  %4 = alloca ptr, align 8
  %5 = alloca ptr, align 8
  %6 = alloca ptr, align 8
  store ptr %0, ptr %3, align 8
  store ptr %1, ptr %4, align 8
  call void @llvm.lifetime.start.p0(i64 8, ptr %5) #8
  call void @llvm.lifetime.start.p0(i64 8, ptr %6) #8
  %7 = load ptr, ptr %4, align 8
  %8 = load i32, ptr @proto_nvme_rdma, align 4
  %9 = load ptr, ptr %3, align 8
  %10 = call ptr @proto_tree_add_item(ptr noundef %7, i32 noundef %8, ptr noundef %9, i32 noundef 0, i32 noundef 4, i32 noundef 0)
  store ptr %10, ptr %6, align 8
  %11 = load ptr, ptr %6, align 8
  %12 = load i32, ptr @ett_cm, align 4
  %13 = call ptr @proto_item_add_subtree(ptr noundef %11, i32 noundef %12)
  store ptr %13, ptr %5, align 8
  %14 = load ptr, ptr %5, align 8
  %15 = load i32, ptr @hf_nvmeof_rdma_cm_rej_recfmt, align 4
  %16 = load ptr, ptr %3, align 8
  %17 = call ptr @proto_tree_add_item(ptr noundef %14, i32 noundef %15, ptr noundef %16, i32 noundef 0, i32 noundef 2, i32 noundef -2147483648)
  %18 = load ptr, ptr %5, align 8
  %19 = load i32, ptr @hf_nvmeof_rdma_cm_rej_status, align 4
  %20 = load ptr, ptr %3, align 8
  %21 = call ptr @proto_tree_add_item(ptr noundef %18, i32 noundef %19, ptr noundef %20, i32 noundef 2, i32 noundef 2, i32 noundef -2147483648)
  call void @llvm.lifetime.end.p0(i64 8, ptr %6) #8
  call void @llvm.lifetime.end.p0(i64 8, ptr %5) #8
  ret void
}

; Function Attrs: null_pointer_is_valid sspstrong uwtable
define internal void @dissect_rdma_cm_rsp_packet(ptr noundef %0, ptr noundef %1) #0 {
  %3 = alloca ptr, align 8
  %4 = alloca ptr, align 8
  %5 = alloca ptr, align 8
  %6 = alloca ptr, align 8
  store ptr %0, ptr %3, align 8
  store ptr %1, ptr %4, align 8
  call void @llvm.lifetime.start.p0(i64 8, ptr %5) #8
  call void @llvm.lifetime.start.p0(i64 8, ptr %6) #8
  %7 = load ptr, ptr %4, align 8
  %8 = load i32, ptr @proto_nvme_rdma, align 4
  %9 = load ptr, ptr %3, align 8
  %10 = call ptr @proto_tree_add_item(ptr noundef %7, i32 noundef %8, ptr noundef %9, i32 noundef 0, i32 noundef 32, i32 noundef 0)
  store ptr %10, ptr %6, align 8
  %11 = load ptr, ptr %6, align 8
  %12 = load i32, ptr @ett_cm, align 4
  %13 = call ptr @proto_item_add_subtree(ptr noundef %11, i32 noundef %12)
  store ptr %13, ptr %5, align 8
  %14 = load ptr, ptr %5, align 8
  %15 = load i32, ptr @hf_nvmeof_rdma_cm_rsp_recfmt, align 4
  %16 = load ptr, ptr %3, align 8
  %17 = call ptr @proto_tree_add_item(ptr noundef %14, i32 noundef %15, ptr noundef %16, i32 noundef 0, i32 noundef 2, i32 noundef -2147483648)
  %18 = load ptr, ptr %5, align 8
  %19 = load i32, ptr @hf_nvmeof_rdma_cm_rsp_crqsize, align 4
  %20 = load ptr, ptr %3, align 8
  %21 = call ptr @proto_tree_add_item(ptr noundef %18, i32 noundef %19, ptr noundef %20, i32 noundef 2, i32 noundef 2, i32 noundef -2147483648)
  %22 = load ptr, ptr %5, align 8
  %23 = load i32, ptr @hf_nvmeof_rdma_cm_rsp_reserved, align 4
  %24 = load ptr, ptr %3, align 8
  %25 = call ptr @proto_tree_add_item(ptr noundef %22, i32 noundef %23, ptr noundef %24, i32 noundef 4, i32 noundef 28, i32 noundef 0)
  call void @llvm.lifetime.end.p0(i64 8, ptr %6) #8
  call void @llvm.lifetime.end.p0(i64 8, ptr %5) #8
  ret void
}

; Function Attrs: null_pointer_is_valid sspstrong uwtable
define internal void @dissect_rdma_cm_req_packet(ptr noundef %0, ptr noundef %1) #0 {
  %3 = alloca ptr, align 8
  %4 = alloca ptr, align 8
  %5 = alloca ptr, align 8
  %6 = alloca ptr, align 8
  store ptr %0, ptr %3, align 8
  store ptr %1, ptr %4, align 8
  call void @llvm.lifetime.start.p0(i64 8, ptr %5) #8
  call void @llvm.lifetime.start.p0(i64 8, ptr %6) #8
  %7 = load ptr, ptr %4, align 8
  %8 = load i32, ptr @proto_nvme_rdma, align 4
  %9 = load ptr, ptr %3, align 8
  %10 = call ptr @proto_tree_add_item(ptr noundef %7, i32 noundef %8, ptr noundef %9, i32 noundef 0, i32 noundef 32, i32 noundef 0)
  store ptr %10, ptr %6, align 8
  %11 = load ptr, ptr %6, align 8
  %12 = load i32, ptr @ett_cm, align 4
  %13 = call ptr @proto_item_add_subtree(ptr noundef %11, i32 noundef %12)
  store ptr %13, ptr %5, align 8
  %14 = load ptr, ptr %5, align 8
  %15 = load i32, ptr @hf_nvmeof_rdma_cm_req_recfmt, align 4
  %16 = load ptr, ptr %3, align 8
  %17 = call ptr @proto_tree_add_item(ptr noundef %14, i32 noundef %15, ptr noundef %16, i32 noundef 0, i32 noundef 2, i32 noundef -2147483648)
  %18 = load ptr, ptr %5, align 8
  %19 = load i32, ptr @hf_nvmeof_rdma_cm_req_qid, align 4
  %20 = load ptr, ptr %3, align 8
  %21 = call ptr @proto_tree_add_item(ptr noundef %18, i32 noundef %19, ptr noundef %20, i32 noundef 2, i32 noundef 2, i32 noundef -2147483648)
  %22 = load ptr, ptr %5, align 8
  %23 = load i32, ptr @hf_nvmeof_rdma_cm_req_hrqsize, align 4
  %24 = load ptr, ptr %3, align 8
  %25 = call ptr @proto_tree_add_item(ptr noundef %22, i32 noundef %23, ptr noundef %24, i32 noundef 4, i32 noundef 2, i32 noundef -2147483648)
  %26 = load ptr, ptr %5, align 8
  %27 = load i32, ptr @hf_nvmeof_rdma_cm_req_hsqsize, align 4
  %28 = load ptr, ptr %3, align 8
  %29 = call ptr @proto_tree_add_item(ptr noundef %26, i32 noundef %27, ptr noundef %28, i32 noundef 6, i32 noundef 2, i32 noundef -2147483648)
  %30 = load ptr, ptr %5, align 8
  %31 = load i32, ptr @hf_nvmeof_rdma_cm_req_cntlid, align 4
  %32 = load ptr, ptr %3, align 8
  %33 = call ptr @proto_tree_add_item(ptr noundef %30, i32 noundef %31, ptr noundef %32, i32 noundef 8, i32 noundef 2, i32 noundef -2147483648)
  %34 = load ptr, ptr %5, align 8
  %35 = load i32, ptr @hf_nvmeof_rdma_cm_req_reserved, align 4
  %36 = load ptr, ptr %3, align 8
  %37 = call ptr @proto_tree_add_item(ptr noundef %34, i32 noundef %35, ptr noundef %36, i32 noundef 10, i32 noundef 22, i32 noundef 0)
  call void @llvm.lifetime.end.p0(i64 8, ptr %6) #8
  call void @llvm.lifetime.end.p0(i64 8, ptr %5) #8
  ret void
}

; Function Attrs: null_pointer_is_valid sspstrong uwtable
define internal ptr @get_conversion_data(ptr noundef %0) #0 {
  %2 = alloca ptr, align 8
  %3 = alloca ptr, align 8
  %4 = alloca ptr, align 8
  %5 = alloca i32, align 4
  store ptr %0, ptr %3, align 8
  call void @llvm.lifetime.start.p0(i64 8, ptr %4) #8
  %6 = load ptr, ptr %3, align 8
  %7 = load i32, ptr @proto_ib, align 4
  %8 = call ptr @conversation_get_proto_data(ptr noundef %6, i32 noundef %7)
  store ptr %8, ptr %4, align 8
  %9 = load ptr, ptr %4, align 8
  %10 = icmp ne ptr %9, null
  br i1 %10, label %12, label %11

11:                                               ; preds = %1
  store ptr null, ptr %2, align 8
  store i32 1, ptr %5, align 4
  br label %30

12:                                               ; preds = %1
  %13 = load ptr, ptr %4, align 8
  %14 = getelementptr inbounds nuw %struct.conversation_infiniband_data, ptr %13, i32 0, i32 0
  %15 = load i64, ptr %14, align 8
  %16 = and i64 %15, 4294901760
  %17 = icmp ne i64 %16, 17170432
  br i1 %17, label %18, label %19

18:                                               ; preds = %12
  store ptr null, ptr %2, align 8
  store i32 1, ptr %5, align 4
  br label %30

19:                                               ; preds = %12
  %20 = load ptr, ptr @gPORT_RANGE, align 8
  %21 = load ptr, ptr %4, align 8
  %22 = getelementptr inbounds nuw %struct.conversation_infiniband_data, ptr %21, i32 0, i32 0
  %23 = load i64, ptr %22, align 8
  %24 = and i64 %23, 65535
  %25 = trunc i64 %24 to i32
  %26 = call zeroext i1 @value_is_in_range(ptr noundef %20, i32 noundef %25)
  br i1 %26, label %28, label %27

27:                                               ; preds = %19
  store ptr null, ptr %2, align 8
  store i32 1, ptr %5, align 4
  br label %30

28:                                               ; preds = %19
  %29 = load ptr, ptr %4, align 8
  store ptr %29, ptr %2, align 8
  store i32 1, ptr %5, align 4
  br label %30

30:                                               ; preds = %28, %27, %18, %11
  call void @llvm.lifetime.end.p0(i64 8, ptr %4) #8
  %31 = load ptr, ptr %2, align 8
  ret ptr %31
}

; Function Attrs: null_pointer_is_valid sspstrong uwtable
define internal zeroext i1 @dissect_rdma_cm_packet(ptr noundef %0, ptr noundef %1, i16 noundef zeroext %2) #0 {
  %4 = alloca ptr, align 8
  %5 = alloca ptr, align 8
  %6 = alloca i16, align 2
  store ptr %0, ptr %4, align 8
  store ptr %1, ptr %5, align 8
  store i16 %2, ptr %6, align 2
  %7 = load i16, ptr %6, align 2
  %8 = zext i16 %7 to i32
  switch i32 %8, label %18 [
    i32 16, label %9
    i32 19, label %12
    i32 18, label %15
  ]

9:                                                ; preds = %3
  %10 = load ptr, ptr %4, align 8
  %11 = load ptr, ptr %5, align 8
  call void @dissect_rdma_cm_req_packet(ptr noundef %10, ptr noundef %11)
  br label %19

12:                                               ; preds = %3
  %13 = load ptr, ptr %4, align 8
  %14 = load ptr, ptr %5, align 8
  call void @dissect_rdma_cm_rsp_packet(ptr noundef %13, ptr noundef %14)
  br label %19

15:                                               ; preds = %3
  %16 = load ptr, ptr %4, align 8
  %17 = load ptr, ptr %5, align 8
  call void @dissect_rdma_cm_rej_packet(ptr noundef %16, ptr noundef %17)
  br label %19

18:                                               ; preds = %3
  br label %19

19:                                               ; preds = %18, %15, %12, %9
  ret i1 true
}

; Function Attrs: null_pointer_is_valid sspstrong uwtable
define internal ptr @find_ib_cm_conversation(ptr noundef %0) #0 {
  %2 = alloca ptr, align 8
  %3 = alloca ptr, align 8
  %4 = alloca ptr, align 8
  %5 = alloca i32, align 4
  store ptr %0, ptr %3, align 8
  call void @llvm.lifetime.start.p0(i64 8, ptr %4) #8
  %6 = load ptr, ptr %3, align 8
  %7 = getelementptr inbounds nuw %struct._packet_info, ptr %6, i32 0, i32 3
  %8 = load i32, ptr %7, align 4
  %9 = load ptr, ptr %3, align 8
  %10 = getelementptr inbounds nuw %struct._packet_info, ptr %9, i32 0, i32 16
  %11 = load ptr, ptr %3, align 8
  %12 = getelementptr inbounds nuw %struct._packet_info, ptr %11, i32 0, i32 17
  %13 = load ptr, ptr %3, align 8
  %14 = getelementptr inbounds nuw %struct._packet_info, ptr %13, i32 0, i32 24
  %15 = load i32, ptr %14, align 4
  %16 = load ptr, ptr %3, align 8
  %17 = getelementptr inbounds nuw %struct._packet_info, ptr %16, i32 0, i32 25
  %18 = load i32, ptr %17, align 8
  %19 = call ptr @find_conversation(i32 noundef %8, ptr noundef %10, ptr noundef %12, i32 noundef 14, i32 noundef %15, i32 noundef %18, i32 noundef 0)
  store ptr %19, ptr %4, align 8
  %20 = load ptr, ptr %4, align 8
  %21 = icmp ne ptr %20, null
  br i1 %21, label %23, label %22

22:                                               ; preds = %1
  store ptr null, ptr %2, align 8
  store i32 1, ptr %5, align 4
  br label %26

23:                                               ; preds = %1
  %24 = load ptr, ptr %4, align 8
  %25 = call ptr @get_conversion_data(ptr noundef %24)
  store ptr %25, ptr %2, align 8
  store i32 1, ptr %5, align 4
  br label %26

26:                                               ; preds = %23, %22
  call void @llvm.lifetime.end.p0(i64 8, ptr %4) #8
  %27 = load ptr, ptr %2, align 8
  ret ptr %27
}

; Function Attrs: null_pointer_is_valid sspstrong uwtable
define internal zeroext i1 @dissect_nvme_ib_cm(ptr noundef %0, ptr noundef %1, ptr noundef %2, ptr noundef %3) #0 {
  %5 = alloca i1, align 1
  %6 = alloca ptr, align 8
  %7 = alloca ptr, align 8
  %8 = alloca ptr, align 8
  %9 = alloca ptr, align 8
  %10 = alloca ptr, align 8
  %11 = alloca ptr, align 8
  %12 = alloca i32, align 4
  store ptr %0, ptr %6, align 8
  store ptr %1, ptr %7, align 8
  store ptr %2, ptr %8, align 8
  store ptr %3, ptr %9, align 8
  call void @llvm.lifetime.start.p0(i64 8, ptr %10) #8
  store ptr null, ptr %10, align 8
  call void @llvm.lifetime.start.p0(i64 8, ptr %11) #8
  %13 = load ptr, ptr %9, align 8
  store ptr %13, ptr %11, align 8
  %14 = load ptr, ptr %7, align 8
  %15 = call ptr @find_ib_cm_conversation(ptr noundef %14)
  store ptr %15, ptr %10, align 8
  %16 = load ptr, ptr %10, align 8
  %17 = icmp ne ptr %16, null
  br i1 %17, label %19, label %18

18:                                               ; preds = %4
  store i1 false, ptr %5, align 1
  store i32 1, ptr %12, align 4
  br label %29

19:                                               ; preds = %4
  %20 = load ptr, ptr %7, align 8
  %21 = getelementptr inbounds nuw %struct._packet_info, ptr %20, i32 0, i32 1
  %22 = load ptr, ptr %21, align 8
  call void @col_set_str(ptr noundef %22, i32 noundef 35, ptr noundef @.str.49)
  %23 = load ptr, ptr %6, align 8
  %24 = load ptr, ptr %8, align 8
  %25 = load ptr, ptr %11, align 8
  %26 = getelementptr inbounds nuw %struct.infinibandinfo, ptr %25, i32 0, i32 3
  %27 = load i16, ptr %26, align 2
  %28 = call zeroext i1 @dissect_rdma_cm_packet(ptr noundef %23, ptr noundef %24, i16 noundef zeroext %27)
  store i1 %28, ptr %5, align 1
  store i32 1, ptr %12, align 4
  br label %29

29:                                               ; preds = %19, %18
  call void @llvm.lifetime.end.p0(i64 8, ptr %11) #8
  call void @llvm.lifetime.end.p0(i64 8, ptr %10) #8
  %30 = load i1, ptr %5, align 1
  ret i1 %30
}