; Function Attrs: null_pointer_is_valid sspstrong uwtable
define internal noundef zeroext i1 @dissect_nvme_ib_cm(ptr noundef %0, ptr noundef %1, ptr noundef %2, ptr noundef readonly captures(none) %3) #0 {
  %5 = getelementptr inbounds nuw i8, ptr %1, i64 20
  %6 = load i32, ptr %5, align 4
  %7 = getelementptr inbounds nuw i8, ptr %1, i64 208
  %8 = getelementptr inbounds nuw i8, ptr %1, i64 232
  %9 = getelementptr inbounds nuw i8, ptr %1, i64 284
  %10 = load i32, ptr %9, align 4
  %11 = getelementptr inbounds nuw i8, ptr %1, i64 288
  %12 = load i32, ptr %11, align 8
  %13 = tail call ptr @find_conversation(i32 noundef %6, ptr noundef nonnull %7, ptr noundef nonnull %8, i32 noundef 14, i32 noundef %10, i32 noundef %12, i32 noundef 0)
  %.not.i = icmp eq ptr %13, null
  br i1 %.not.i, label %dissect_rdma_cm_packet.exit, label %14

14:                                               ; preds = %4
  %15 = load i32, ptr @proto_ib, align 4
  %16 = tail call ptr @conversation_get_proto_data(ptr noundef nonnull %13, i32 noundef %15)
  %.not.i.i = icmp eq ptr %16, null
  br i1 %.not.i.i, label %dissect_rdma_cm_packet.exit, label %17

17:                                               ; preds = %14
  %18 = load i64, ptr %16, align 8
  %19 = and i64 %18, 4294901760
  %.not7.i.i = icmp eq i64 %19, 17170432
  br i1 %.not7.i.i, label %20, label %dissect_rdma_cm_packet.exit

20:                                               ; preds = %17
  %21 = load ptr, ptr @gPORT_RANGE, align 8
  %22 = trunc i64 %18 to i32
  %23 = and i32 %22, 65535
  %24 = tail call zeroext i1 @value_is_in_range(ptr noundef %21, i32 noundef %23)
  br i1 %24, label %find_ib_cm_conversation.exit, label %dissect_rdma_cm_packet.exit

find_ib_cm_conversation.exit:                     ; preds = %20
  %25 = getelementptr inbounds nuw i8, ptr %1, i64 8
  %26 = load ptr, ptr %25, align 8
  tail call void @col_set_str(ptr noundef %26, i32 noundef 35, ptr noundef nonnull @.str.49)
  %27 = getelementptr inbounds nuw i8, ptr %3, i64 10
  %28 = load i16, ptr %27, align 2
  switch i16 %28, label %dissect_rdma_cm_packet.exit [
    i16 16, label %29
    i16 19, label %46
    i16 18, label %57
  ]

29:                                               ; preds = %find_ib_cm_conversation.exit
  %30 = load i32, ptr @proto_nvme_rdma, align 4
  %31 = tail call ptr @proto_tree_add_item(ptr noundef %2, i32 noundef %30, ptr noundef %0, i32 noundef 0, i32 noundef 32, i32 noundef 0)
  %32 = load i32, ptr @ett_cm, align 4
  %33 = tail call ptr @proto_item_add_subtree(ptr noundef %31, i32 noundef %32)
  %34 = load i32, ptr @hf_nvmeof_rdma_cm_req_recfmt, align 4
  %35 = tail call ptr @proto_tree_add_item(ptr noundef %33, i32 noundef %34, ptr noundef %0, i32 noundef 0, i32 noundef 2, i32 noundef -2147483648)
  %36 = load i32, ptr @hf_nvmeof_rdma_cm_req_qid, align 4
  %37 = tail call ptr @proto_tree_add_item(ptr noundef %33, i32 noundef %36, ptr noundef %0, i32 noundef 2, i32 noundef 2, i32 noundef -2147483648)
  %38 = load i32, ptr @hf_nvmeof_rdma_cm_req_hrqsize, align 4
  %39 = tail call ptr @proto_tree_add_item(ptr noundef %33, i32 noundef %38, ptr noundef %0, i32 noundef 4, i32 noundef 2, i32 noundef -2147483648)
  %40 = load i32, ptr @hf_nvmeof_rdma_cm_req_hsqsize, align 4
  %41 = tail call ptr @proto_tree_add_item(ptr noundef %33, i32 noundef %40, ptr noundef %0, i32 noundef 6, i32 noundef 2, i32 noundef -2147483648)
  %42 = load i32, ptr @hf_nvmeof_rdma_cm_req_cntlid, align 4
  %43 = tail call ptr @proto_tree_add_item(ptr noundef %33, i32 noundef %42, ptr noundef %0, i32 noundef 8, i32 noundef 2, i32 noundef -2147483648)
  %44 = load i32, ptr @hf_nvmeof_rdma_cm_req_reserved, align 4
  %45 = tail call ptr @proto_tree_add_item(ptr noundef %33, i32 noundef %44, ptr noundef %0, i32 noundef 10, i32 noundef 22, i32 noundef 0)
  br label %dissect_rdma_cm_packet.exit

46:                                               ; preds = %find_ib_cm_conversation.exit
  %47 = load i32, ptr @proto_nvme_rdma, align 4
  %48 = tail call ptr @proto_tree_add_item(ptr noundef %2, i32 noundef %47, ptr noundef %0, i32 noundef 0, i32 noundef 32, i32 noundef 0)
  %49 = load i32, ptr @ett_cm, align 4
  %50 = tail call ptr @proto_item_add_subtree(ptr noundef %48, i32 noundef %49)
  %51 = load i32, ptr @hf_nvmeof_rdma_cm_rsp_recfmt, align 4
  %52 = tail call ptr @proto_tree_add_item(ptr noundef %50, i32 noundef %51, ptr noundef %0, i32 noundef 0, i32 noundef 2, i32 noundef -2147483648)
  %53 = load i32, ptr @hf_nvmeof_rdma_cm_rsp_crqsize, align 4
  %54 = tail call ptr @proto_tree_add_item(ptr noundef %50, i32 noundef %53, ptr noundef %0, i32 noundef 2, i32 noundef 2, i32 noundef -2147483648)
  %55 = load i32, ptr @hf_nvmeof_rdma_cm_rsp_reserved, align 4
  %56 = tail call ptr @proto_tree_add_item(ptr noundef %50, i32 noundef %55, ptr noundef %0, i32 noundef 4, i32 noundef 28, i32 noundef 0)
  br label %dissect_rdma_cm_packet.exit

57:                                               ; preds = %find_ib_cm_conversation.exit
  %58 = load i32, ptr @proto_nvme_rdma, align 4
  %59 = tail call ptr @proto_tree_add_item(ptr noundef %2, i32 noundef %58, ptr noundef %0, i32 noundef 0, i32 noundef 4, i32 noundef 0)
  %60 = load i32, ptr @ett_cm, align 4
  %61 = tail call ptr @proto_item_add_subtree(ptr noundef %59, i32 noundef %60)
  %62 = load i32, ptr @hf_nvmeof_rdma_cm_rej_recfmt, align 4
  %63 = tail call ptr @proto_tree_add_item(ptr noundef %61, i32 noundef %62, ptr noundef %0, i32 noundef 0, i32 noundef 2, i32 noundef -2147483648)
  %64 = load i32, ptr @hf_nvmeof_rdma_cm_rej_status, align 4
  %65 = tail call ptr @proto_tree_add_item(ptr noundef %61, i32 noundef %64, ptr noundef %0, i32 noundef 2, i32 noundef 2, i32 noundef -2147483648)
  br label %dissect_rdma_cm_packet.exit

dissect_rdma_cm_packet.exit:                      ; preds = %20, %17, %14, %4, %57, %46, %29, %find_ib_cm_conversation.exit
  %.not10 = phi i1 [ true, %find_ib_cm_conversation.exit ], [ true, %29 ], [ true, %46 ], [ true, %57 ], [ false, %4 ], [ false, %14 ], [ false, %17 ], [ false, %20 ]
  ret i1 %.not10
}